; Function Attrs: mustprogress uwtable
define void @_ZN3g2o7cholmod7Cholmod10freeFactorEv(ptr noundef nonnull readonly align 8 captures(none) dereferenceable(8) %0) local_unnamed_addr #0 align 2 {
  %2 = load ptr, ptr %0, align 8, !tbaa !29
  %3 = getelementptr inbounds nuw i8, ptr %2, i64 2760
  %4 = load ptr, ptr %3, align 8, !tbaa !20
  %.not.i = icmp eq ptr %4, null
  br i1 %.not.i, label %_ZN3g2o7cholmod7Cholmod4Impl10freeFactorEv.exit, label %5

5:                                                ; preds = %1
  %6 = tail call i32 @cholmod_free_factor(ptr noundef nonnull %3, ptr noundef nonnull align 8 dereferenceable(2768) %2)
  store ptr null, ptr %3, align 8, !tbaa !20
  br label %_ZN3g2o7cholmod7Cholmod4Impl10freeFactorEv.exit

_ZN3g2o7cholmod7Cholmod4Impl10freeFactorEv.exit:  ; preds = %1, %5
  ret void
}